; Function Attrs: mustprogress uwtable
define void @_ZN6duckdb16EnumColumnWriterC2ERNS_13ParquetWriterENS_11LogicalTypeEmNS_6vectorINSt7__cxx1112basic_stringIcSt11char_traitsIcESaIcEEELb1EEEmmb(ptr noundef nonnull align 8 dereferenceable(100) %0, ptr noundef nonnull align 8 dereferenceable(672) %1, ptr noundef %2, i64 noundef %3, ptr noundef captures(none) %4, i64 noundef %5, i64 noundef %6, i1 noundef zeroext %7) unnamed_addr #0 align 2 personality ptr @__gxx_personality_v0 {
  %9 = alloca %"class.duckdb::vector.15", align 8
  %10 = alloca %"class.duckdb::vector.15", align 8
  %11 = load ptr, ptr %4, align 8, !tbaa !79
  %12 = getelementptr inbounds nuw i8, ptr %4, i64 8
  %13 = load ptr, ptr %12, align 8, !tbaa !80
  %14 = getelementptr inbounds nuw i8, ptr %4, i64 16
  %15 = load ptr, ptr %14, align 8, !tbaa !81
  tail call void @llvm.memset.p0.i64(ptr noundef nonnull align 8 dereferenceable(24) %4, i8 0, i64 24, i1 false)
  call void @llvm.lifetime.start.p0(i64 24, ptr nonnull %9)
  store ptr %11, ptr %9, align 8, !tbaa !79
  %16 = getelementptr inbounds nuw i8, ptr %9, i64 8
  store ptr %13, ptr %16, align 8, !tbaa !80
  %17 = getelementptr inbounds nuw i8, ptr %9, i64 16
  store ptr %15, ptr %17, align 8, !tbaa !81
  call void @llvm.memset.p0.i64(ptr noundef nonnull align 8 dereferenceable(24) %10, i8 0, i64 24, i1 false)
  invoke void @_ZN6duckdb12ColumnWriterC2ERNS_13ParquetWriterEmNS_6vectorINSt7__cxx1112basic_stringIcSt11char_traitsIcESaIcEEELb1EEEmmb(ptr noundef nonnull align 8 dereferenceable(65) %0, ptr noundef nonnull align 8 dereferenceable(672) %1, i64 noundef %3, ptr noundef nonnull %9, i64 noundef %5, i64 noundef %6, i1 noundef zeroext %7)
          to label %18 unwind label %.body

18:                                               ; preds = %8
  %19 = load ptr, ptr %9, align 8, !tbaa !79
  %20 = load ptr, ptr %16, align 8, !tbaa !80
  %.not4.i.i.i.i.i = icmp eq ptr %19, %20
  br i1 %.not4.i.i.i.i.i, label %_ZSt8_DestroyIPNSt7__cxx1112basic_stringIcSt11char_traitsIcESaIcEEES5_EvT_S7_RSaIT0_E.exit.i.i, label %.lr.ph.i.i.i.i.i

.lr.ph.i.i.i.i.i:                                 ; preds = %18, %_ZSt8_DestroyINSt7__cxx1112basic_stringIcSt11char_traitsIcESaIcEEEEvPT_.exit.i.i.i.i.i
  %.05.i.i.i.i.i = phi ptr [ %27, %_ZSt8_DestroyINSt7__cxx1112basic_stringIcSt11char_traitsIcESaIcEEEEvPT_.exit.i.i.i.i.i ], [ %19, %18 ]
  %21 = load ptr, ptr %.05.i.i.i.i.i, align 8, !tbaa !11
  %22 = getelementptr inbounds nuw i8, ptr %.05.i.i.i.i.i, i64 16
  %23 = icmp eq ptr %21, %22
  br i1 %23, label %_ZNKSt7__cxx1112basic_stringIcSt11char_traitsIcESaIcEE11_M_is_localEv.exit.thread.i.i.i.i.i.i.i.i, label %_ZNKSt7__cxx1112basic_stringIcSt11char_traitsIcESaIcEE11_M_is_localEv.exit.i.i.i.i.i.i.i.i

_ZNKSt7__cxx1112basic_stringIcSt11char_traitsIcESaIcEE11_M_is_localEv.exit.thread.i.i.i.i.i.i.i.i: ; preds = %.lr.ph.i.i.i.i.i
  %24 = getelementptr inbounds nuw i8, ptr %.05.i.i.i.i.i, i64 8
  %25 = load i64, ptr %24, align 8, !tbaa !16
  %26 = icmp ult i64 %25, 16
  call void @llvm.assume(i1 %26)
  br label %_ZSt8_DestroyINSt7__cxx1112basic_stringIcSt11char_traitsIcESaIcEEEEvPT_.exit.i.i.i.i.i

_ZNKSt7__cxx1112basic_stringIcSt11char_traitsIcESaIcEE11_M_is_localEv.exit.i.i.i.i.i.i.i.i: ; preds = %.lr.ph.i.i.i.i.i
  call void @_ZdlPv(ptr noundef %21) #27
  br label %_ZSt8_DestroyINSt7__cxx1112basic_stringIcSt11char_traitsIcESaIcEEEEvPT_.exit.i.i.i.i.i

_ZSt8_DestroyINSt7__cxx1112basic_stringIcSt11char_traitsIcESaIcEEEEvPT_.exit.i.i.i.i.i: ; preds = %_ZNKSt7__cxx1112basic_stringIcSt11char_traitsIcESaIcEE11_M_is_localEv.exit.i.i.i.i.i.i.i.i, %_ZNKSt7__cxx1112basic_stringIcSt11char_traitsIcESaIcEE11_M_is_localEv.exit.thread.i.i.i.i.i.i.i.i
  %27 = getelementptr inbounds nuw i8, ptr %.05.i.i.i.i.i, i64 32
  %.not.i.i.i.i.i = icmp eq ptr %27, %20
  br i1 %.not.i.i.i.i.i, label %_ZSt8_DestroyIPNSt7__cxx1112basic_stringIcSt11char_traitsIcESaIcEEES5_EvT_S7_RSaIT0_E.exitthread-pre-split.i.i, label %.lr.ph.i.i.i.i.i, !llvm.loop !82

_ZSt8_DestroyIPNSt7__cxx1112basic_stringIcSt11char_traitsIcESaIcEEES5_EvT_S7_RSaIT0_E.exitthread-pre-split.i.i: ; preds = %_ZSt8_DestroyINSt7__cxx1112basic_stringIcSt11char_traitsIcESaIcEEEEvPT_.exit.i.i.i.i.i
  %.pr.i.i = load ptr, ptr %9, align 8, !tbaa !79
  br label %_ZSt8_DestroyIPNSt7__cxx1112basic_stringIcSt11char_traitsIcESaIcEEES5_EvT_S7_RSaIT0_E.exit.i.i

_ZSt8_DestroyIPNSt7__cxx1112basic_stringIcSt11char_traitsIcESaIcEEES5_EvT_S7_RSaIT0_E.exit.i.i: ; preds = %_ZSt8_DestroyIPNSt7__cxx1112basic_stringIcSt11char_traitsIcESaIcEEES5_EvT_S7_RSaIT0_E.exitthread-pre-split.i.i, %18
  %28 = phi ptr [ %.pr.i.i, %_ZSt8_DestroyIPNSt7__cxx1112basic_stringIcSt11char_traitsIcESaIcEEES5_EvT_S7_RSaIT0_E.exitthread-pre-split.i.i ], [ %19, %18 ]
  %.not.i.i.i.i = icmp eq ptr %28, null
  br i1 %.not.i.i.i.i, label %_ZNSt6vectorINSt7__cxx1112basic_stringIcSt11char_traitsIcESaIcEEESaIS5_EED2Ev.exit, label %29

29:                                               ; preds = %_ZSt8_DestroyIPNSt7__cxx1112basic_stringIcSt11char_traitsIcESaIcEEES5_EvT_S7_RSaIT0_E.exit.i.i
  call void @_ZdlPv(ptr noundef nonnull %28) #27
  br label %_ZNSt6vectorINSt7__cxx1112basic_stringIcSt11char_traitsIcESaIcEEESaIS5_EED2Ev.exit

.body:                                            ; preds = %8
  %30 = landingpad { ptr, i32 }
          cleanup
  call void @_ZNSt6vectorINSt7__cxx1112basic_stringIcSt11char_traitsIcESaIcEEESaIS5_EED2Ev(ptr noundef nonnull align 8 dereferenceable(24) %9) #25
  call void @_ZNSt6vectorINSt7__cxx1112basic_stringIcSt11char_traitsIcESaIcEEESaIS5_EED2Ev(ptr noundef nonnull align 8 dereferenceable(24) %10) #25
  br label %41

_ZNSt6vectorINSt7__cxx1112basic_stringIcSt11char_traitsIcESaIcEEESaIS5_EED2Ev.exit: ; preds = %29, %_ZSt8_DestroyIPNSt7__cxx1112basic_stringIcSt11char_traitsIcESaIcEEES5_EvT_S7_RSaIT0_E.exit.i.i
  call void @llvm.lifetime.end.p0(i64 24, ptr nonnull %9)
  store ptr getelementptr inbounds nuw inrange(-16, 152) (i8, ptr @_ZTVN6duckdb16EnumColumnWriterE, i64 16), ptr %0, align 8, !tbaa !3
  %31 = getelementptr inbounds nuw i8, ptr %0, i64 72
  call void @_ZN6duckdb11LogicalTypeC1EOS0_(ptr noundef nonnull align 8 dereferenceable(24) %31, ptr noundef nonnull align 8 dereferenceable(24) %2) #25
  %32 = invoke noundef i64 @_ZN6duckdb8EnumType7GetSizeERKNS_11LogicalTypeE(ptr noundef nonnull align 8 dereferenceable(24) %31)
          to label %33 unwind label %39

33:                                               ; preds = %_ZNSt6vectorINSt7__cxx1112basic_stringIcSt11char_traitsIcESaIcEEESaIS5_EED2Ev.exit
  %34 = icmp eq i64 %32, 0
  br i1 %34, label %_ZN6duckdb12RleBpDecoder15ComputeBitWidthEm.exit, label %.preheader.i

.preheader.i:                                     ; preds = %33, %.preheader.i
  %.0.i = phi i8 [ %36, %.preheader.i ], [ 1, %33 ]
  %35 = zext nneg i8 %.0.i to i64
  %.highbits.i = lshr i64 %32, %35
  %.not.i = icmp eq i64 %.highbits.i, 0
  %36 = add i8 %.0.i, 1
  br i1 %.not.i, label %_ZN6duckdb12RleBpDecoder15ComputeBitWidthEm.exit.loopexit, label %.preheader.i, !llvm.loop !134

_ZN6duckdb12RleBpDecoder15ComputeBitWidthEm.exit.loopexit: ; preds = %.preheader.i
  %37 = zext i8 %.0.i to i32
  br label %_ZN6duckdb12RleBpDecoder15ComputeBitWidthEm.exit

_ZN6duckdb12RleBpDecoder15ComputeBitWidthEm.exit: ; preds = %_ZN6duckdb12RleBpDecoder15ComputeBitWidthEm.exit.loopexit, %33
  %.06.i = phi i32 [ 0, %33 ], [ %37, %_ZN6duckdb12RleBpDecoder15ComputeBitWidthEm.exit.loopexit ]
  %38 = getelementptr inbounds nuw i8, ptr %0, i64 96
  store i32 %.06.i, ptr %38, align 8, !tbaa !135
  ret void

39:                                               ; preds = %_ZNSt6vectorINSt7__cxx1112basic_stringIcSt11char_traitsIcESaIcEEESaIS5_EED2Ev.exit
  %40 = landingpad { ptr, i32 }
          cleanup
  call void @_ZN6duckdb11LogicalTypeD1Ev(ptr noundef nonnull align 8 dereferenceable(24) %31) #25
  call void @_ZN6duckdb12ColumnWriterD2Ev(ptr noundef nonnull align 8 dereferenceable(65) %0) #25
  br label %41

41:                                               ; preds = %39, %.body
  %.pn = phi { ptr, i32 } [ %40, %39 ], [ %30, %.body ]
  resume { ptr, i32 } %.pn
}